; Function Attrs: nounwind uwtable
define hidden void @mbedtls_ctr_drbg_free(ptr noundef %0) local_unnamed_addr #0 {
  %2 = icmp eq ptr %0, null
  br i1 %2, label %7, label %3

3:                                                ; preds = %1
  %4 = getelementptr inbounds nuw i8, ptr %0, i64 40
  tail call void @mbedtls_aes_free(ptr noundef nonnull %4) #14
  tail call void @mbedtls_platform_zeroize(ptr noundef nonnull %0, i64 noundef 344) #14
  %5 = getelementptr inbounds nuw i8, ptr %0, i64 32
  store i32 10000, ptr %5, align 8, !tbaa !11
  %6 = getelementptr inbounds nuw i8, ptr %0, i64 16
  store i32 -1, ptr %6, align 8, !tbaa !3
  br label %7

7:                                                ; preds = %1, %3
  ret void
}